#include <math.h>
#include <stdio.h>
#include <stdlib.h>
#include <string.h>

int main()
{
	char str[101];
	int i,flag=1,j=0;
	gets(str);

	for(i=0;str[i]!='\0';i++)
	{
		if(str[i]==' ')
		{
			flag=0;
			j++;
		}
		else 
		{
			j=0;
			flag=1;
		}
		if(!(flag==0&&j>1))
			printf("%c",str[i]);
	}
}